; ModuleID = '62/1502.c'
source_filename = "62/1502.c"
target datalayout = "e-m:e-p270:32:32-p271:32:32-p272:64:64-i64:64-f80:128-n8:16:32:64-S128"
target triple = "x86_64-pc-linux-gnu"

; Function Attrs: noinline nounwind uwtable
define dso_local i32 @main() #0 {
  %1 = alloca i32, align 4
  %2 = alloca i8*, align 8
  %3 = alloca i32, align 4
  %4 = alloca i32*, align 8
  %5 = alloca i32, align 4
  store i32 0, i32* %1, align 4
  %6 = call noalias i8* @malloc(i64 1000) #3
  store i8* %6, i8** %2, align 8
  %7 = call noalias i8* @malloc(i64 4000) #3
  %8 = bitcast i8* %7 to i32*
  store i32* %8, i32** %4, align 8
  %9 = load i8*, i8** %2, align 8
  %10 = call i32 (i8*, ...) bitcast (i32 (...)* @gets to i32 (i8*, ...)*)(i8* %9)
  store i32 0, i32* %3, align 4
  br label %11

11:                                               ; preds = %38, %0
  %12 = load i8*, i8** %2, align 8
  %13 = load i32, i32* %3, align 4
  %14 = sext i32 %13 to i64
  %15 = getelementptr inbounds i8, i8* %12, i64 %14
  %16 = load i8, i8* %15, align 1
  %17 = sext i8 %16 to i32
  %18 = icmp ne i32 %17, 0
  br i1 %18, label %19, label %41

19:                                               ; preds = %11
  %20 = load i8*, i8** %2, align 8
  %21 = load i32, i32* %3, align 4
  %22 = sext i32 %21 to i64
  %23 = getelementptr inbounds i8, i8* %20, i64 %22
  %24 = load i8, i8* %23, align 1
  %25 = sext i8 %24 to i32
  %26 = icmp eq i32 %25, 32
  br i1 %26, label %27, label %32

27:                                               ; preds = %19
  %28 = load i32*, i32** %4, align 8
  %29 = load i32, i32* %3, align 4
  %30 = sext i32 %29 to i64
  %31 = getelementptr inbounds i32, i32* %28, i64 %30
  store i32 0, i32* %31, align 4
  br label %37

32:                                               ; preds = %19
  %33 = load i32*, i32** %4, align 8
  %34 = load i32, i32* %3, align 4
  %35 = sext i32 %34 to i64
  %36 = getelementptr inbounds i32, i32* %33, i64 %35
  store i32 1, i32* %36, align 4
  br label %37

37:                                               ; preds = %32, %27
  br label %38

38:                                               ; preds = %37
  %39 = load i32, i32* %3, align 4
  %40 = add nsw i32 %39, 1
  store i32 %40, i32* %3, align 4
  br label %11

41:                                               ; preds = %11
  store i32 1, i32* %3, align 4
  br label %42

42:                                               ; preds = %104, %41
  %43 = load i8*, i8** %2, align 8
  %44 = load i32, i32* %3, align 4
  %45 = sext i32 %44 to i64
  %46 = getelementptr inbounds i8, i8* %43, i64 %45
  %47 = load i8, i8* %46, align 1
  %48 = sext i8 %47 to i32
  %49 = icmp ne i32 %48, 0
  br i1 %49, label %50, label %107

50:                                               ; preds = %42
  %51 = load i32*, i32** %4, align 8
  %52 = load i32, i32* %3, align 4
  %53 = sub nsw i32 %52, 1
  %54 = sext i32 %53 to i64
  %55 = getelementptr inbounds i32, i32* %51, i64 %54
  %56 = load i32, i32* %55, align 4
  %57 = icmp eq i32 %56, 0
  br i1 %57, label %58, label %103

58:                                               ; preds = %50
  %59 = load i8*, i8** %2, align 8
  %60 = load i32, i32* %3, align 4
  %61 = sext i32 %60 to i64
  %62 = getelementptr inbounds i8, i8* %59, i64 %61
  %63 = load i8, i8* %62, align 1
  %64 = sext i8 %63 to i32
  %65 = icmp eq i32 %64, 32
  br i1 %65, label %66, label %103

66:                                               ; preds = %58
  %67 = load i32, i32* %3, align 4
  store i32 %67, i32* %5, align 4
  br label %68

68:                                               ; preds = %97, %66
  %69 = load i8*, i8** %2, align 8
  %70 = load i32, i32* %5, align 4
  %71 = sext i32 %70 to i64
  %72 = getelementptr inbounds i8, i8* %69, i64 %71
  %73 = load i8, i8* %72, align 1
  %74 = sext i8 %73 to i32
  %75 = icmp ne i32 %74, 0
  br i1 %75, label %76, label %100

76:                                               ; preds = %68
  %77 = load i8*, i8** %2, align 8
  %78 = load i32, i32* %5, align 4
  %79 = add nsw i32 %78, 1
  %80 = sext i32 %79 to i64
  %81 = getelementptr inbounds i8, i8* %77, i64 %80
  %82 = load i8, i8* %81, align 1
  %83 = load i8*, i8** %2, align 8
  %84 = load i32, i32* %5, align 4
  %85 = sext i32 %84 to i64
  %86 = getelementptr inbounds i8, i8* %83, i64 %85
  store i8 %82, i8* %86, align 1
  %87 = load i32*, i32** %4, align 8
  %88 = load i32, i32* %5, align 4
  %89 = add nsw i32 %88, 1
  %90 = sext i32 %89 to i64
  %91 = getelementptr inbounds i32, i32* %87, i64 %90
  %92 = load i32, i32* %91, align 4
  %93 = load i32*, i32** %4, align 8
  %94 = load i32, i32* %5, align 4
  %95 = sext i32 %94 to i64
  %96 = getelementptr inbounds i32, i32* %93, i64 %95
  store i32 %92, i32* %96, align 4
  br label %97

97:                                               ; preds = %76
  %98 = load i32, i32* %5, align 4
  %99 = add nsw i32 %98, 1
  store i32 %99, i32* %5, align 4
  br label %68

100:                                              ; preds = %68
  %101 = load i32, i32* %3, align 4
  %102 = sub nsw i32 %101, 1
  store i32 %102, i32* %3, align 4
  br label %103

103:                                              ; preds = %100, %58, %50
  br label %104

104:                                              ; preds = %103
  %105 = load i32, i32* %3, align 4
  %106 = add nsw i32 %105, 1
  store i32 %106, i32* %3, align 4
  br label %42

107:                                              ; preds = %42
  %108 = load i8*, i8** %2, align 8
  %109 = call i32 @puts(i8* %108)
  %110 = load i8*, i8** %2, align 8
  call void @free(i8* %110) #3
  %111 = load i32*, i32** %4, align 8
  %112 = bitcast i32* %111 to i8*
  call void @free(i8* %112) #3
  ret i32 0
}

; Function Attrs: nounwind
declare dso_local noalias i8* @malloc(i64) #1

declare dso_local i32 @gets(...) #2

declare dso_local i32 @puts(i8*) #2

; Function Attrs: nounwind
declare dso_local void @free(i8*) #1


!llvm.module.flags = !{!0}
!llvm.ident = !{!1}

!0 = !{i32 1, !"wchar_size", i32 4}
!1 = !{!"clang version 10.0.0-4ubuntu1 "}
